target datalayout = "e-m:e-p270:32:32-p271:32:32-p272:64:64-i64:64-i128:128-f80:128-n8:16:32:64-S128"
target triple = "x86_64-pc-linux-gnu"

%struct._lv_scale_section_t = type { ptr, ptr, ptr, i32, i32, i32, i32, i32, i32, i32, i32, %struct.lv_point_t, %struct.lv_point_t }
%struct.lv_point_t = type { i32, i32 }

; Function Attrs: nounwind uwtable
define void @lv_scale_section_set_style(ptr noundef %0, i32 noundef %1, ptr noundef %2) #0 {
  %4 = alloca ptr, align 8
  %5 = alloca i32, align 4
  %6 = alloca ptr, align 8
  store ptr %0, ptr %4, align 8, !tbaa !3
  store i32 %1, ptr %5, align 4, !tbaa !25
  store ptr %2, ptr %6, align 8, !tbaa !3
  %7 = load ptr, ptr %4, align 8, !tbaa !3
  %8 = icmp eq ptr null, %7
  br i1 %8, label %9, label %10

9:                                                ; preds = %3
  br label %25

10:                                               ; preds = %3
  %11 = load i32, ptr %5, align 4, !tbaa !25
  switch i32 %11, label %24 [
    i32 0, label %12
    i32 131072, label %16
    i32 327680, label %20
  ]

12:                                               ; preds = %10
  %13 = load ptr, ptr %6, align 8, !tbaa !3
  %14 = load ptr, ptr %4, align 8, !tbaa !3
  %15 = getelementptr inbounds nuw %struct._lv_scale_section_t, ptr %14, i32 0, i32 0
  store ptr %13, ptr %15, align 8, !tbaa !37
  br label %25

16:                                               ; preds = %10
  %17 = load ptr, ptr %6, align 8, !tbaa !3
  %18 = load ptr, ptr %4, align 8, !tbaa !3
  %19 = getelementptr inbounds nuw %struct._lv_scale_section_t, ptr %18, i32 0, i32 1
  store ptr %17, ptr %19, align 8, !tbaa !40
  br label %25

20:                                               ; preds = %10
  %21 = load ptr, ptr %6, align 8, !tbaa !3
  %22 = load ptr, ptr %4, align 8, !tbaa !3
  %23 = getelementptr inbounds nuw %struct._lv_scale_section_t, ptr %22, i32 0, i32 2
  store ptr %21, ptr %23, align 8, !tbaa !41
  br label %25

24:                                               ; preds = %10
  br label %25

25:                                               ; preds = %9, %24, %20, %16, %12
  ret void
}