; Function Attrs: mustprogress nofree norecurse nosync nounwind willreturn memory(argmem: write) uwtable
define void @lv_scale_section_set_style(ptr noundef writeonly %0, i32 noundef %1, ptr noundef %2) local_unnamed_addr #3 {
  %4 = icmp eq ptr %0, null
  br i1 %4, label %11, label %5

5:                                                ; preds = %3
  switch i32 %1, label %11 [
    i32 0, label %6
    i32 131072, label %7
    i32 327680, label %9
  ]

6:                                                ; preds = %5
  store ptr %2, ptr %0, align 8, !tbaa !36
  br label %11

7:                                                ; preds = %5
  %8 = getelementptr inbounds nuw i8, ptr %0, i64 8
  store ptr %2, ptr %8, align 8, !tbaa !37
  br label %11

9:                                                ; preds = %5
  %10 = getelementptr inbounds nuw i8, ptr %0, i64 16
  store ptr %2, ptr %10, align 8, !tbaa !38
  br label %11

11:                                               ; preds = %5, %3, %9, %7, %6
  ret void
}